target datalayout = "e-m:e-p270:32:32-p271:32:32-p272:64:64-i64:64-i128:128-f80:128-n8:16:32:64-S128"
target triple = "x86_64-unknown-linux-gnu"

%"class.icu_75::NGramParser" = type { ptr, i32, ptr, i32, i32, i32, ptr }

; Function Attrs: mustprogress nounwind uwtable
define void @_ZN6icu_7511NGramParserC2EPKiPKh(ptr noundef nonnull align 8 dereferenceable(48) %this, ptr noundef %theNgramList, ptr noundef %theCharMap) unnamed_addr #0 align 2 {
entry:
  %this.addr = alloca ptr, align 8
  %theNgramList.addr = alloca ptr, align 8
  %theCharMap.addr = alloca ptr, align 8
  store ptr %this, ptr %this.addr, align 8
  store ptr %theNgramList, ptr %theNgramList.addr, align 8
  store ptr %theCharMap, ptr %theCharMap.addr, align 8
  %this1 = load ptr, ptr %this.addr, align 8
  store ptr getelementptr inbounds ({ [6 x ptr] }, ptr @_ZTVN6icu_7511NGramParserE, i32 0, i32 0, i32 2), ptr %this1, align 8
  %ngram = getelementptr inbounds %"class.icu_75::NGramParser", ptr %this1, i32 0, i32 1
  store i32 0, ptr %ngram, align 8
  %byteIndex = getelementptr inbounds %"class.icu_75::NGramParser", ptr %this1, i32 0, i32 5
  store i32 0, ptr %byteIndex, align 8
  %0 = load ptr, ptr %theNgramList.addr, align 8
  %ngramList = getelementptr inbounds %"class.icu_75::NGramParser", ptr %this1, i32 0, i32 2
  store ptr %0, ptr %ngramList, align 8
  %1 = load ptr, ptr %theCharMap.addr, align 8
  %charMap = getelementptr inbounds %"class.icu_75::NGramParser", ptr %this1, i32 0, i32 6
  store ptr %1, ptr %charMap, align 8
  %hitCount = getelementptr inbounds %"class.icu_75::NGramParser", ptr %this1, i32 0, i32 4
  store i32 0, ptr %hitCount, align 4
  %ngramCount = getelementptr inbounds %"class.icu_75::NGramParser", ptr %this1, i32 0, i32 3
  store i32 0, ptr %ngramCount, align 8
  ret void
}