; Function Attrs: mustprogress nofree norecurse nosync nounwind willreturn memory(argmem: write) uwtable
define void @_ZN6icu_7511NGramParserC2EPKiPKh(ptr nocapture noundef nonnull writeonly align 8 dereferenceable(48) %this, ptr noundef %theNgramList, ptr noundef %theCharMap) unnamed_addr #0 align 2 {
entry:
  store ptr getelementptr inbounds ({ [6 x ptr] }, ptr @_ZTVN6icu_7511NGramParserE, i64 0, i32 0, i64 2), ptr %this, align 8
  %ngram = getelementptr inbounds i8, ptr %this, i64 8
  store i32 0, ptr %ngram, align 8
  %byteIndex = getelementptr inbounds i8, ptr %this, i64 32
  store i32 0, ptr %byteIndex, align 8
  %ngramList = getelementptr inbounds i8, ptr %this, i64 16
  store ptr %theNgramList, ptr %ngramList, align 8
  %charMap = getelementptr inbounds i8, ptr %this, i64 40
  store ptr %theCharMap, ptr %charMap, align 8
  %hitCount = getelementptr inbounds i8, ptr %this, i64 28
  store i32 0, ptr %hitCount, align 4
  %ngramCount = getelementptr inbounds i8, ptr %this, i64 24
  store i32 0, ptr %ngramCount, align 8
  ret void
}